; Function Attrs: nounwind uwtable
define dso_local ptr @EvalPlanQualNext(ptr noundef readonly captures(none) %0) local_unnamed_addr #0 {
  %2 = getelementptr inbounds nuw i8, ptr %0, i64 64
  %3 = load ptr, ptr %2, align 8
  %4 = getelementptr inbounds nuw i8, ptr %3, i64 192
  %5 = load ptr, ptr %4, align 8
  %6 = load ptr, ptr @CurrentMemoryContext, align 8
  store ptr %5, ptr @CurrentMemoryContext, align 8
  %7 = getelementptr inbounds nuw i8, ptr %0, i64 96
  %8 = load ptr, ptr %7, align 8
  %9 = getelementptr inbounds nuw i8, ptr %8, i64 104
  %10 = load ptr, ptr %9, align 8
  %.not.i = icmp eq ptr %10, null
  br i1 %.not.i, label %ExecProcNode.exit, label %11

11:                                               ; preds = %1
  tail call void @ExecReScan(ptr noundef nonnull %8) #9
  br label %ExecProcNode.exit

ExecProcNode.exit:                                ; preds = %1, %11
  %12 = getelementptr inbounds nuw i8, ptr %8, i64 24
  %13 = load ptr, ptr %12, align 8
  %14 = tail call ptr %13(ptr noundef nonnull %8) #9
  store ptr %6, ptr @CurrentMemoryContext, align 8
  ret ptr %14
}